; Function Attrs: mustprogress uwtable
define hidden noundef nonnull align 8 dereferenceable(8) ptr @_ZN3satlsERSoRKNS_6statusE(ptr noundef nonnull returned align 8 dereferenceable(8) %out, ptr noundef nonnull align 8 dereferenceable(16) %st) local_unnamed_addr #3 personality ptr @__gxx_personality_v0 {
entry:
  %th = alloca %"class.std::function", align 8
  %ref.tmp1 = alloca %"struct.sat::status_pp", align 8
  %_M_manager.i.i = getelementptr inbounds i8, ptr %th, i64 16
  %_M_invoker.i = getelementptr inbounds i8, ptr %th, i64 24
  call void @llvm.memset.p0.i64(ptr noundef nonnull align 8 dereferenceable(16) %th, i8 0, i64 16, i1 false)
  store ptr @"_ZNSt17_Function_handlerIF6symboliEZN3satlsERSoRKNS2_6statusEE3$_0E9_M_invokeERKSt9_Any_dataOi", ptr %_M_invoker.i, align 8
  store ptr @"_ZNSt17_Function_handlerIF6symboliEZN3satlsERSoRKNS2_6statusEE3$_0E10_M_managerERSt9_Any_dataRKS9_St18_Manager_operation", ptr %_M_manager.i.i, align 8
  store ptr %st, ptr %ref.tmp1, align 8
  %th3.i = getelementptr inbounds i8, ptr %ref.tmp1, i64 8
  store ptr %th, ptr %th3.i, align 8
  %call = invoke noundef nonnull align 8 dereferenceable(8) ptr @_ZN3satlsERSoRKNS_9status_ppE(ptr noundef nonnull align 8 dereferenceable(8) %out, ptr noundef nonnull align 8 dereferenceable(16) %ref.tmp1)
          to label %invoke.cont2 unwind label %lpad

invoke.cont2:                                     ; preds = %entry
  %0 = load ptr, ptr %_M_manager.i.i, align 8
  %tobool.not.i.i = icmp eq ptr %0, null
  br i1 %tobool.not.i.i, label %_ZNSt8functionIF6symboliEED2Ev.exit, label %if.then.i.i

if.then.i.i:                                      ; preds = %invoke.cont2
  %call.i.i = invoke noundef zeroext i1 %0(ptr noundef nonnull align 8 dereferenceable(16) %th, ptr noundef nonnull align 8 dereferenceable(16) %th, i32 noundef 3)
          to label %_ZNSt8functionIF6symboliEED2Ev.exit unwind label %terminate.lpad.i.i

terminate.lpad.i.i:                               ; preds = %if.then.i.i
  %1 = landingpad { ptr, i32 }
          catch ptr null
  %2 = extractvalue { ptr, i32 } %1, 0
  call void @__clang_call_terminate(ptr %2) #20
  unreachable

_ZNSt8functionIF6symboliEED2Ev.exit:              ; preds = %invoke.cont2, %if.then.i.i
  ret ptr %out

lpad:                                             ; preds = %entry
  %3 = landingpad { ptr, i32 }
          cleanup
  %4 = load ptr, ptr %_M_manager.i.i, align 8
  %tobool.not.i.i3 = icmp eq ptr %4, null
  br i1 %tobool.not.i.i3, label %_ZNSt8functionIF6symboliEED2Ev.exit7, label %if.then.i.i4

if.then.i.i4:                                     ; preds = %lpad
  %call.i.i5 = invoke noundef zeroext i1 %4(ptr noundef nonnull align 8 dereferenceable(16) %th, ptr noundef nonnull align 8 dereferenceable(16) %th, i32 noundef 3)
          to label %_ZNSt8functionIF6symboliEED2Ev.exit7 unwind label %terminate.lpad.i.i6

terminate.lpad.i.i6:                              ; preds = %if.then.i.i4
  %5 = landingpad { ptr, i32 }
          catch ptr null
  %6 = extractvalue { ptr, i32 } %5, 0
  call void @__clang_call_terminate(ptr %6) #20
  unreachable

_ZNSt8functionIF6symboliEED2Ev.exit7:             ; preds = %lpad, %if.then.i.i4
  resume { ptr, i32 } %3
}